target datalayout = "e-m:e-p270:32:32-p271:32:32-p272:64:64-i64:64-i128:128-f80:128-n8:16:32:64-S128"
target triple = "x86_64-pc-linux-gnu"

%struct.p_test_ctx = type { ptr, ptr, ptr, ptr }

; Function Attrs: nounwind uwtable
define internal void @p_teardown(ptr noundef %0) #0 {
  %2 = alloca ptr, align 8
  %3 = alloca ptr, align 8
  store ptr %0, ptr %2, align 8, !tbaa !13
  call void @llvm.lifetime.start.p0(i64 8, ptr %3) #8
  %4 = load ptr, ptr %2, align 8, !tbaa !13
  store ptr %4, ptr %3, align 8, !tbaa !19
  %5 = load ptr, ptr %3, align 8, !tbaa !19
  %6 = getelementptr inbounds nuw %struct.p_test_ctx, ptr %5, i32 0, i32 3
  %7 = load ptr, ptr %6, align 8, !tbaa !27
  call void @OSSL_LIB_CTX_free(ptr noundef %7)
  %8 = load ptr, ptr %3, align 8, !tbaa !19
  %9 = getelementptr inbounds nuw %struct.p_test_ctx, ptr %8, i32 0, i32 0
  %10 = load ptr, ptr %9, align 8, !tbaa !21
  call void @free(ptr noundef %10) #8
  %11 = load ptr, ptr %3, align 8, !tbaa !19
  %12 = getelementptr inbounds nuw %struct.p_test_ctx, ptr %11, i32 0, i32 1
  %13 = load ptr, ptr %12, align 8, !tbaa !25
  call void @free(ptr noundef %13) #8
  %14 = load ptr, ptr %3, align 8, !tbaa !19
  call void @free(ptr noundef %14) #8
  call void @llvm.lifetime.end.p0(i64 8, ptr %3) #8
  ret void
}