; Function Attrs: nounwind uwtable
define internal void @p_teardown(ptr noundef captures(none) %0) #0 {
  %2 = getelementptr inbounds nuw i8, ptr %0, i64 24
  %3 = load ptr, ptr %2, align 8, !tbaa !21
  tail call void @OSSL_LIB_CTX_free(ptr noundef %3) #12
  %4 = load ptr, ptr %0, align 8, !tbaa !14
  tail call void @free(ptr noundef %4) #12
  %5 = getelementptr inbounds nuw i8, ptr %0, i64 8
  %6 = load ptr, ptr %5, align 8, !tbaa !19
  tail call void @free(ptr noundef %6) #12
  tail call void @free(ptr noundef %0) #12
  ret void
}